; ModuleID = '55/726.c'
source_filename = "55/726.c"
target datalayout = "e-m:e-p270:32:32-p271:32:32-p272:64:64-i64:64-f80:128-n8:16:32:64-S128"
target triple = "x86_64-pc-linux-gnu"

@.str = private unnamed_addr constant [9 x i8] c"%d %s %d\00", align 1
@.str.1 = private unnamed_addr constant [3 x i8] c"%c\00", align 1
@.str.2 = private unnamed_addr constant [2 x i8] c"0\00", align 1
@.str.3 = private unnamed_addr constant [2 x i8] c"\0A\00", align 1

; Function Attrs: noinline nounwind uwtable
define dso_local i32 @main() #0 {
  %1 = alloca i32, align 4
  %2 = alloca i32, align 4
  %3 = alloca i32, align 4
  %4 = alloca [10000 x i32], align 16
  %5 = alloca [10000 x i32], align 16
  %6 = alloca i32, align 4
  %7 = alloca i32, align 4
  %8 = alloca i32, align 4
  %9 = alloca i32, align 4
  %10 = alloca i32, align 4
  %11 = alloca i32, align 4
  %12 = alloca [10000 x i8], align 16
  %13 = alloca [10000 x i8], align 16
  store i32 0, i32* %1, align 4
  store i32 0, i32* %8, align 4
  %14 = call i32 (i8*, ...) @__isoc99_scanf(i8* getelementptr inbounds ([9 x i8], [9 x i8]* @.str, i64 0, i64 0), i32* %2, [10000 x i8]* %12, i32* %3)
  %15 = getelementptr inbounds [10000 x i8], [10000 x i8]* %12, i64 0, i64 0
  %16 = call i64 @strlen(i8* %15) #3
  %17 = trunc i64 %16 to i32
  store i32 %17, i32* %6, align 4
  %18 = load i32, i32* %6, align 4
  %19 = sub nsw i32 %18, 1
  store i32 %19, i32* %7, align 4
  br label %20

20:                                               ; preds = %109, %0
  %21 = load i32, i32* %7, align 4
  %22 = icmp sge i32 %21, 0
  br i1 %22, label %23, label %112

23:                                               ; preds = %20
  %24 = load i32, i32* %7, align 4
  %25 = sext i32 %24 to i64
  %26 = getelementptr inbounds [10000 x i8], [10000 x i8]* %12, i64 0, i64 %25
  %27 = load i8, i8* %26, align 1
  %28 = sext i8 %27 to i32
  %29 = icmp sge i32 %28, 48
  br i1 %29, label %30, label %50

30:                                               ; preds = %23
  %31 = load i32, i32* %7, align 4
  %32 = sext i32 %31 to i64
  %33 = getelementptr inbounds [10000 x i8], [10000 x i8]* %12, i64 0, i64 %32
  %34 = load i8, i8* %33, align 1
  %35 = sext i8 %34 to i32
  %36 = icmp sle i32 %35, 57
  br i1 %36, label %37, label %50

37:                                               ; preds = %30
  %38 = load i32, i32* %7, align 4
  %39 = sext i32 %38 to i64
  %40 = getelementptr inbounds [10000 x i8], [10000 x i8]* %12, i64 0, i64 %39
  %41 = load i8, i8* %40, align 1
  %42 = sext i8 %41 to i32
  %43 = sub nsw i32 %42, 48
  %44 = load i32, i32* %6, align 4
  %45 = sub nsw i32 %44, 1
  %46 = load i32, i32* %7, align 4
  %47 = sub nsw i32 %45, %46
  %48 = sext i32 %47 to i64
  %49 = getelementptr inbounds [10000 x i32], [10000 x i32]* %4, i64 0, i64 %48
  store i32 %43, i32* %49, align 4
  br label %108

50:                                               ; preds = %30, %23
  %51 = load i32, i32* %7, align 4
  %52 = sext i32 %51 to i64
  %53 = getelementptr inbounds [10000 x i8], [10000 x i8]* %12, i64 0, i64 %52
  %54 = load i8, i8* %53, align 1
  %55 = sext i8 %54 to i32
  %56 = icmp sge i32 %55, 97
  br i1 %56, label %57, label %78

57:                                               ; preds = %50
  %58 = load i32, i32* %7, align 4
  %59 = sext i32 %58 to i64
  %60 = getelementptr inbounds [10000 x i8], [10000 x i8]* %12, i64 0, i64 %59
  %61 = load i8, i8* %60, align 1
  %62 = sext i8 %61 to i32
  %63 = icmp sle i32 %62, 122
  br i1 %63, label %64, label %78

64:                                               ; preds = %57
  %65 = load i32, i32* %7, align 4
  %66 = sext i32 %65 to i64
  %67 = getelementptr inbounds [10000 x i8], [10000 x i8]* %12, i64 0, i64 %66
  %68 = load i8, i8* %67, align 1
  %69 = sext i8 %68 to i32
  %70 = sub nsw i32 %69, 97
  %71 = add nsw i32 %70, 10
  %72 = load i32, i32* %6, align 4
  %73 = sub nsw i32 %72, 1
  %74 = load i32, i32* %7, align 4
  %75 = sub nsw i32 %73, %74
  %76 = sext i32 %75 to i64
  %77 = getelementptr inbounds [10000 x i32], [10000 x i32]* %4, i64 0, i64 %76
  store i32 %71, i32* %77, align 4
  br label %107

78:                                               ; preds = %57, %50
  %79 = load i32, i32* %7, align 4
  %80 = sext i32 %79 to i64
  %81 = getelementptr inbounds [10000 x i8], [10000 x i8]* %12, i64 0, i64 %80
  %82 = load i8, i8* %81, align 1
  %83 = sext i8 %82 to i32
  %84 = icmp sge i32 %83, 65
  br i1 %84, label %85, label %106

85:                                               ; preds = %78
  %86 = load i32, i32* %7, align 4
  %87 = sext i32 %86 to i64
  %88 = getelementptr inbounds [10000 x i8], [10000 x i8]* %12, i64 0, i64 %87
  %89 = load i8, i8* %88, align 1
  %90 = sext i8 %89 to i32
  %91 = icmp sle i32 %90, 90
  br i1 %91, label %92, label %106

92:                                               ; preds = %85
  %93 = load i32, i32* %7, align 4
  %94 = sext i32 %93 to i64
  %95 = getelementptr inbounds [10000 x i8], [10000 x i8]* %12, i64 0, i64 %94
  %96 = load i8, i8* %95, align 1
  %97 = sext i8 %96 to i32
  %98 = sub nsw i32 %97, 65
  %99 = add nsw i32 %98, 10
  %100 = load i32, i32* %6, align 4
  %101 = sub nsw i32 %100, 1
  %102 = load i32, i32* %7, align 4
  %103 = sub nsw i32 %101, %102
  %104 = sext i32 %103 to i64
  %105 = getelementptr inbounds [10000 x i32], [10000 x i32]* %4, i64 0, i64 %104
  store i32 %99, i32* %105, align 4
  br label %106

106:                                              ; preds = %92, %85, %78
  br label %107

107:                                              ; preds = %106, %64
  br label %108

108:                                              ; preds = %107, %37
  br label %109

109:                                              ; preds = %108
  %110 = load i32, i32* %7, align 4
  %111 = add nsw i32 %110, -1
  store i32 %111, i32* %7, align 4
  br label %20

112:                                              ; preds = %20
  store i32 0, i32* %7, align 4
  br label %113

113:                                              ; preds = %138, %112
  %114 = load i32, i32* %7, align 4
  %115 = load i32, i32* %6, align 4
  %116 = icmp slt i32 %114, %115
  br i1 %116, label %117, label %141

117:                                              ; preds = %113
  store i32 1, i32* %10, align 4
  store i32 0, i32* %9, align 4
  br label %118

118:                                              ; preds = %126, %117
  %119 = load i32, i32* %9, align 4
  %120 = load i32, i32* %7, align 4
  %121 = icmp slt i32 %119, %120
  br i1 %121, label %122, label %129

122:                                              ; preds = %118
  %123 = load i32, i32* %2, align 4
  %124 = load i32, i32* %10, align 4
  %125 = mul nsw i32 %124, %123
  store i32 %125, i32* %10, align 4
  br label %126

126:                                              ; preds = %122
  %127 = load i32, i32* %9, align 4
  %128 = add nsw i32 %127, 1
  store i32 %128, i32* %9, align 4
  br label %118

129:                                              ; preds = %118
  %130 = load i32, i32* %7, align 4
  %131 = sext i32 %130 to i64
  %132 = getelementptr inbounds [10000 x i32], [10000 x i32]* %4, i64 0, i64 %131
  %133 = load i32, i32* %132, align 4
  %134 = load i32, i32* %10, align 4
  %135 = mul nsw i32 %133, %134
  %136 = load i32, i32* %8, align 4
  %137 = add nsw i32 %136, %135
  store i32 %137, i32* %8, align 4
  br label %138

138:                                              ; preds = %129
  %139 = load i32, i32* %7, align 4
  %140 = add nsw i32 %139, 1
  store i32 %140, i32* %7, align 4
  br label %113

141:                                              ; preds = %113
  %142 = load i32, i32* %8, align 4
  %143 = icmp eq i32 %142, 0
  br i1 %143, label %144, label %145

144:                                              ; preds = %141
  store i32 1, i32* %11, align 4
  br label %146

145:                                              ; preds = %141
  store i32 0, i32* %11, align 4
  br label %146

146:                                              ; preds = %145, %144
  store i32 0, i32* %9, align 4
  br label %147

147:                                              ; preds = %160, %146
  %148 = load i32, i32* %8, align 4
  %149 = icmp ne i32 %148, 0
  br i1 %149, label %150, label %163

150:                                              ; preds = %147
  %151 = load i32, i32* %8, align 4
  %152 = load i32, i32* %3, align 4
  %153 = srem i32 %151, %152
  %154 = load i32, i32* %9, align 4
  %155 = sext i32 %154 to i64
  %156 = getelementptr inbounds [10000 x i32], [10000 x i32]* %5, i64 0, i64 %155
  store i32 %153, i32* %156, align 4
  %157 = load i32, i32* %8, align 4
  %158 = load i32, i32* %3, align 4
  %159 = sdiv i32 %157, %158
  store i32 %159, i32* %8, align 4
  br label %160

160:                                              ; preds = %150
  %161 = load i32, i32* %9, align 4
  %162 = add nsw i32 %161, 1
  store i32 %162, i32* %9, align 4
  br label %147

163:                                              ; preds = %147
  %164 = load i32, i32* %9, align 4
  %165 = sub nsw i32 %164, 1
  store i32 %165, i32* %7, align 4
  br label %166

166:                                              ; preds = %203, %163
  %167 = load i32, i32* %7, align 4
  %168 = icmp sge i32 %167, 0
  br i1 %168, label %169, label %206

169:                                              ; preds = %166
  %170 = load i32, i32* %7, align 4
  %171 = sext i32 %170 to i64
  %172 = getelementptr inbounds [10000 x i32], [10000 x i32]* %5, i64 0, i64 %171
  %173 = load i32, i32* %172, align 4
  %174 = icmp sle i32 %173, 9
  br i1 %174, label %175, label %188

175:                                              ; preds = %169
  %176 = load i32, i32* %7, align 4
  %177 = sext i32 %176 to i64
  %178 = getelementptr inbounds [10000 x i32], [10000 x i32]* %5, i64 0, i64 %177
  %179 = load i32, i32* %178, align 4
  %180 = add nsw i32 %179, 48
  %181 = trunc i32 %180 to i8
  %182 = load i32, i32* %9, align 4
  %183 = sub nsw i32 %182, 1
  %184 = load i32, i32* %7, align 4
  %185 = sub nsw i32 %183, %184
  %186 = sext i32 %185 to i64
  %187 = getelementptr inbounds [10000 x i8], [10000 x i8]* %13, i64 0, i64 %186
  store i8 %181, i8* %187, align 1
  br label %202

188:                                              ; preds = %169
  %189 = load i32, i32* %7, align 4
  %190 = sext i32 %189 to i64
  %191 = getelementptr inbounds [10000 x i32], [10000 x i32]* %5, i64 0, i64 %190
  %192 = load i32, i32* %191, align 4
  %193 = sub nsw i32 %192, 10
  %194 = add nsw i32 %193, 65
  %195 = trunc i32 %194 to i8
  %196 = load i32, i32* %9, align 4
  %197 = sub nsw i32 %196, 1
  %198 = load i32, i32* %7, align 4
  %199 = sub nsw i32 %197, %198
  %200 = sext i32 %199 to i64
  %201 = getelementptr inbounds [10000 x i8], [10000 x i8]* %13, i64 0, i64 %200
  store i8 %195, i8* %201, align 1
  br label %202

202:                                              ; preds = %188, %175
  br label %203

203:                                              ; preds = %202
  %204 = load i32, i32* %7, align 4
  %205 = add nsw i32 %204, -1
  store i32 %205, i32* %7, align 4
  br label %166

206:                                              ; preds = %166
  store i32 0, i32* %7, align 4
  br label %207

207:                                              ; preds = %218, %206
  %208 = load i32, i32* %7, align 4
  %209 = load i32, i32* %9, align 4
  %210 = icmp slt i32 %208, %209
  br i1 %210, label %211, label %221

211:                                              ; preds = %207
  %212 = load i32, i32* %7, align 4
  %213 = sext i32 %212 to i64
  %214 = getelementptr inbounds [10000 x i8], [10000 x i8]* %13, i64 0, i64 %213
  %215 = load i8, i8* %214, align 1
  %216 = sext i8 %215 to i32
  %217 = call i32 (i8*, ...) @printf(i8* getelementptr inbounds ([3 x i8], [3 x i8]* @.str.1, i64 0, i64 0), i32 %216)
  br label %218

218:                                              ; preds = %211
  %219 = load i32, i32* %7, align 4
  %220 = add nsw i32 %219, 1
  store i32 %220, i32* %7, align 4
  br label %207

221:                                              ; preds = %207
  %222 = load i32, i32* %11, align 4
  %223 = icmp eq i32 %222, 1
  br i1 %223, label %224, label %226

224:                                              ; preds = %221
  %225 = call i32 (i8*, ...) @printf(i8* getelementptr inbounds ([2 x i8], [2 x i8]* @.str.2, i64 0, i64 0))
  br label %226

226:                                              ; preds = %224, %221
  %227 = call i32 (i8*, ...) @printf(i8* getelementptr inbounds ([2 x i8], [2 x i8]* @.str.3, i64 0, i64 0))
  %228 = load i32, i32* %1, align 4
  ret i32 %228
}

declare dso_local i32 @__isoc99_scanf(i8*, ...) #1

; Function Attrs: nounwind readonly
declare dso_local i64 @strlen(i8*) #2

declare dso_local i32 @printf(i8*, ...) #1


!llvm.module.flags = !{!0}
!llvm.ident = !{!1}

!0 = !{i32 1, !"wchar_size", i32 4}
!1 = !{!"clang version 10.0.0-4ubuntu1 "}
